target datalayout = "e-m:e-p270:32:32-p271:32:32-p272:64:64-i64:64-i128:128-f80:128-n8:16:32:64-S128"
target triple = "x86_64-pc-linux-gnu"

@.str.12 = private unnamed_addr constant [10 x i8] c"graphinfo\00", align 1

; Function Attrs: nounwind uwtable
define internal void @bindGraphinfo(ptr noundef %0) #0 {
  %2 = alloca ptr, align 8
  %3 = alloca ptr, align 8
  store ptr %0, ptr %2, align 8, !tbaa !11
  %4 = load ptr, ptr %2, align 8, !tbaa !11
  call void @aginit(ptr noundef %4, i32 noundef 0, ptr noundef @.str.12, i32 noundef 24, i32 noundef 1)
  call void @llvm.lifetime.start.p0(i64 8, ptr %3) #14
  %5 = load ptr, ptr %2, align 8, !tbaa !11
  %6 = call ptr @agfstsubg(ptr noundef %5)
  store ptr %6, ptr %3, align 8, !tbaa !11
  br label %7

7:                                                ; preds = %13, %1
  %8 = load ptr, ptr %3, align 8, !tbaa !11
  %9 = icmp ne ptr %8, null
  br i1 %9, label %11, label %10

10:                                               ; preds = %7
  call void @llvm.lifetime.end.p0(i64 8, ptr %3) #14
  br label %16

11:                                               ; preds = %7
  %12 = load ptr, ptr %3, align 8, !tbaa !11
  call void @bindGraphinfo(ptr noundef %12)
  br label %13

13:                                               ; preds = %11
  %14 = load ptr, ptr %3, align 8, !tbaa !11
  %15 = call ptr @agnxtsubg(ptr noundef %14)
  store ptr %15, ptr %3, align 8, !tbaa !11
  br label %7, !llvm.loop !59

16:                                               ; preds = %10
  ret void
}