; Function Attrs: nounwind uwtable
define internal fastcc void @bindGraphinfo(ptr noundef nonnull %0) unnamed_addr #11 {
  tail call void @aginit(ptr noundef nonnull %0, i32 noundef 0, ptr noundef nonnull @.str.12, i32 noundef 24, i32 noundef 1) #23
  %2 = tail call ptr @agfstsubg(ptr noundef nonnull %0) #23
  %.not5 = icmp eq ptr %2, null
  br i1 %.not5, label %._crit_edge, label %.lr.ph

._crit_edge:                                      ; preds = %.lr.ph, %1
  ret void

.lr.ph:                                           ; preds = %1, %.lr.ph
  %.06 = phi ptr [ %3, %.lr.ph ], [ %2, %1 ]
  tail call fastcc void @bindGraphinfo(ptr noundef %.06)
  %3 = tail call ptr @agnxtsubg(ptr noundef nonnull %.06) #23
  %.not = icmp eq ptr %3, null
  br i1 %.not, label %._crit_edge, label %.lr.ph, !llvm.loop !58
}